; Function Attrs: mustprogress uwtable
define internal void @_ZN5boost9unit_test9framework4implL16invoke_init_funcEPFbvE(ptr nocapture noundef readonly %0) #3 personality ptr @__gxx_personality_v0 {
  %2 = alloca %"class.std::runtime_error", align 8
  %3 = tail call noundef zeroext i1 %0()
  br i1 %3, label %8, label %4

4:                                                ; preds = %1
  call void @llvm.lifetime.start.p0(i64 16, ptr nonnull %2) #26
  call void @_ZNSt13runtime_errorC1EPKc(ptr noundef nonnull align 8 dereferenceable(16) %2, ptr noundef nonnull @.str.49)
  invoke void @_ZN5boost9unit_test9ut_detail15throw_exceptionISt13runtime_errorEEvRKT_(ptr noundef nonnull align 8 dereferenceable(16) %2) #27
          to label %5 unwind label %6

5:                                                ; preds = %4
  unreachable

6:                                                ; preds = %4
  %7 = landingpad { ptr, i32 }
          cleanup
  call void @_ZNSt13runtime_errorD1Ev(ptr noundef nonnull align 8 dereferenceable(16) %2) #26
  call void @llvm.lifetime.end.p0(i64 16, ptr nonnull %2) #26
  resume { ptr, i32 } %7

8:                                                ; preds = %1
  ret void
}